target datalayout = "e-m:e-p270:32:32-p271:32:32-p272:64:64-i64:64-i128:128-f80:128-n8:16:32:64-S128"
target triple = "x86_64-pc-linux-gnu"

; Function Attrs: alwaysinline nounwind uwtable
define internal void @zend_do_inheritance(ptr noundef %0, ptr noundef %1) #2 {
  %3 = alloca ptr, align 8
  %4 = alloca ptr, align 8
  store ptr %0, ptr %3, align 8, !tbaa !66
  store ptr %1, ptr %4, align 8, !tbaa !66
  %5 = load ptr, ptr %3, align 8, !tbaa !66
  %6 = load ptr, ptr %4, align 8, !tbaa !66
  call void @zend_do_inheritance_ex(ptr noundef %5, ptr noundef %6, i1 noundef zeroext false)
  ret void
}

; Function Attrs: nounwind uwtable
define dso_local ptr @zend_register_internal_class_with_flags(ptr noundef %0, ptr noundef %1, i32 noundef %2) #0 {
  %4 = alloca ptr, align 8
  %5 = alloca ptr, align 8
  %6 = alloca i32, align 4
  %7 = alloca ptr, align 8
  store ptr %0, ptr %4, align 8, !tbaa !66
  store ptr %1, ptr %5, align 8, !tbaa !66
  store i32 %2, ptr %6, align 4, !tbaa !4
  call void @llvm.lifetime.start.p0(i64 8, ptr %7) #21
  %8 = load ptr, ptr %4, align 8, !tbaa !66
  %9 = load i32, ptr %6, align 4, !tbaa !4
  %10 = call ptr @do_register_internal_class(ptr noundef %8, i32 noundef %9)
  store ptr %10, ptr %7, align 8, !tbaa !66
  %11 = load ptr, ptr %5, align 8, !tbaa !66
  %12 = icmp ne ptr %11, null
  br i1 %12, label %13, label %17

13:                                               ; preds = %3
  %14 = load ptr, ptr %7, align 8, !tbaa !66
  %15 = load ptr, ptr %5, align 8, !tbaa !66
  call void @zend_do_inheritance(ptr noundef %14, ptr noundef %15)
  %16 = load ptr, ptr %7, align 8, !tbaa !66
  call void @zend_build_properties_info_table(ptr noundef %16)
  br label %17

17:                                               ; preds = %13, %3
  %18 = load ptr, ptr %7, align 8, !tbaa !66
  call void @llvm.lifetime.end.p0(i64 8, ptr %7) #21
  ret ptr %18
}