; Function Attrs: nounwind uwtable
define dso_local noundef ptr @zend_register_internal_class_with_flags(ptr noundef readonly captures(none) %0, ptr noundef %1, i32 noundef %2) local_unnamed_addr #2 {
  %4 = tail call fastcc ptr @do_register_internal_class(ptr noundef %0, i32 noundef %2)
  %.not = icmp eq ptr %1, null
  br i1 %.not, label %6, label %5

5:                                                ; preds = %3
  tail call void @zend_do_inheritance_ex(ptr noundef %4, ptr noundef nonnull %1, i1 noundef zeroext false) #34
  tail call void @zend_build_properties_info_table(ptr noundef %4) #34
  br label %6

6:                                                ; preds = %5, %3
  ret ptr %4
}